target datalayout = "e-m:e-p270:32:32-p271:32:32-p272:64:64-i64:64-i128:128-f80:128-n8:16:32:64-S128"
target triple = "x86_64-pc-linux-gnu"

@.str.366 = private unnamed_addr constant [50 x i8] c"%s:%u: failed assertion bufsize >= 2 (%ld >= %ld)\00", align 1
@.str.367 = private unnamed_addr constant [29 x i8] c"epan/dissectors/packet-ipp.c\00", align 1
@.str.368 = private unnamed_addr constant [4 x i8] c"...\00", align 1

; Function Attrs: null_pointer_is_valid sspstrong uwtable
define internal i32 @ipp_fmt_collection(ptr noundef %0, ptr noundef %1, i32 noundef %2, ptr noundef %3, i32 noundef %4) #0 {
  %6 = alloca ptr, align 8
  %7 = alloca ptr, align 8
  %8 = alloca i32, align 4
  %9 = alloca ptr, align 8
  %10 = alloca i32, align 4
  %11 = alloca ptr, align 8
  %12 = alloca ptr, align 8
  %13 = alloca i8, align 1
  %14 = alloca i32, align 4
  %15 = alloca i32, align 4
  %16 = alloca i32, align 4
  %17 = alloca [176 x i8], align 16
  store ptr %0, ptr %6, align 8
  store ptr %1, ptr %7, align 8
  store i32 %2, ptr %8, align 4
  store ptr %3, ptr %9, align 8
  store i32 %4, ptr %10, align 4
  call void @llvm.lifetime.start.p0(i64 8, ptr %11) #10
  %18 = load ptr, ptr %9, align 8
  store ptr %18, ptr %11, align 8
  call void @llvm.lifetime.start.p0(i64 8, ptr %12) #10
  %19 = load ptr, ptr %9, align 8
  %20 = load i32, ptr %10, align 4
  %21 = sext i32 %20 to i64
  %22 = getelementptr i8, ptr %19, i64 %21
  %23 = getelementptr i8, ptr %22, i64 -1
  store ptr %23, ptr %12, align 8
  call void @llvm.lifetime.start.p0(i64 1, ptr %13) #10
  call void @llvm.lifetime.start.p0(i64 4, ptr %14) #10
  call void @llvm.lifetime.start.p0(i64 4, ptr %15) #10
  call void @llvm.lifetime.start.p0(i64 4, ptr %16) #10
  store i32 0, ptr %16, align 4
  %24 = load i32, ptr %10, align 4
  %25 = icmp sge i32 %24, 2
  br i1 %25, label %26, label %27

26:                                               ; preds = %5
  br label %31

27:                                               ; preds = %5
  %28 = load i32, ptr %10, align 4
  %29 = sext i32 %28 to i64
  call void (ptr, ...) @proto_report_dissector_bug(ptr noundef @.str.366, ptr noundef @.str.367, i32 noundef 1464, i64 noundef %29, i64 noundef 2) #13
  unreachable

30:                                               ; No predecessors!
  br label %31

31:                                               ; preds = %30, %26
  %32 = load ptr, ptr %11, align 8
  %33 = getelementptr i8, ptr %32, i32 1
  store ptr %33, ptr %11, align 8
  store i8 123, ptr %32, align 1
  %34 = load ptr, ptr %9, align 8
  %35 = getelementptr i8, ptr %34, i32 1
  store ptr %35, ptr %9, align 8
  br label %36

36:                                               ; preds = %198, %31
  %37 = load ptr, ptr %6, align 8
  %38 = load i32, ptr %8, align 4
  %39 = add i32 %38, 3
  %40 = call zeroext i1 @tvb_offset_exists(ptr noundef %37, i32 noundef %39)
  br i1 %40, label %42, label %41

41:                                               ; preds = %36
  br label %202

42:                                               ; preds = %36
  %43 = load ptr, ptr %6, align 8
  %44 = load i32, ptr %8, align 4
  %45 = call zeroext i8 @tvb_get_uint8(ptr noundef %43, i32 noundef %44)
  store i8 %45, ptr %13, align 1
  %46 = load ptr, ptr %6, align 8
  %47 = load i32, ptr %8, align 4
  %48 = add i32 %47, 1
  %49 = call zeroext i16 @tvb_get_ntohs(ptr noundef %46, i32 noundef %48)
  %50 = zext i16 %49 to i32
  store i32 %50, ptr %14, align 4
  %51 = load ptr, ptr %6, align 8
  %52 = load i32, ptr %8, align 4
  %53 = add i32 %52, 1
  %54 = add i32 %53, 2
  %55 = load i32, ptr %14, align 4
  %56 = add i32 %54, %55
  %57 = add i32 %56, 2
  %58 = call zeroext i1 @tvb_offset_exists(ptr noundef %51, i32 noundef %57)
  br i1 %58, label %60, label %59

59:                                               ; preds = %42
  br label %202

60:                                               ; preds = %42
  %61 = load ptr, ptr %6, align 8
  %62 = load i32, ptr %8, align 4
  %63 = add i32 %62, 1
  %64 = add i32 %63, 2
  %65 = load i32, ptr %14, align 4
  %66 = add i32 %64, %65
  %67 = call zeroext i16 @tvb_get_ntohs(ptr noundef %61, i32 noundef %66)
  %68 = zext i16 %67 to i32
  store i32 %68, ptr %15, align 4
  %69 = load ptr, ptr %6, align 8
  %70 = load i32, ptr %8, align 4
  %71 = add i32 %70, 1
  %72 = add i32 %71, 2
  %73 = load i32, ptr %14, align 4
  %74 = add i32 %72, %73
  %75 = add i32 %74, 2
  %76 = load i32, ptr %15, align 4
  %77 = add i32 %75, %76
  %78 = call zeroext i1 @tvb_offset_exists(ptr noundef %69, i32 noundef %77)
  br i1 %78, label %80, label %79

79:                                               ; preds = %60
  br label %202

80:                                               ; preds = %60
  %81 = load i8, ptr %13, align 1
  %82 = zext i8 %81 to i32
  %83 = icmp eq i32 %82, 74
  br i1 %83, label %84, label %140

84:                                               ; preds = %80
  %85 = load i32, ptr %16, align 4
  %86 = icmp ne i32 %85, 0
  br i1 %86, label %140, label %87

87:                                               ; preds = %84
  %88 = load ptr, ptr %11, align 8
  %89 = load ptr, ptr %9, align 8
  %90 = icmp ugt ptr %88, %89
  br i1 %90, label %91, label %98

91:                                               ; preds = %87
  %92 = load ptr, ptr %11, align 8
  %93 = load ptr, ptr %12, align 8
  %94 = icmp ult ptr %92, %93
  br i1 %94, label %95, label %98

95:                                               ; preds = %91
  %96 = load ptr, ptr %11, align 8
  %97 = getelementptr i8, ptr %96, i32 1
  store ptr %97, ptr %11, align 8
  store i8 44, ptr %96, align 1
  br label %98

98:                                               ; preds = %95, %91, %87
  %99 = load ptr, ptr %12, align 8
  %100 = load ptr, ptr %11, align 8
  %101 = ptrtoint ptr %99 to i64
  %102 = ptrtoint ptr %100 to i64
  %103 = sub i64 %101, %102
  %104 = load i32, ptr %15, align 4
  %105 = sext i32 %104 to i64
  %106 = icmp slt i64 %103, %105
  br i1 %106, label %107, label %116

107:                                              ; preds = %98
  %108 = load ptr, ptr %11, align 8
  %109 = load ptr, ptr %12, align 8
  %110 = load ptr, ptr %11, align 8
  %111 = ptrtoint ptr %109 to i64
  %112 = ptrtoint ptr %110 to i64
  %113 = sub i64 %111, %112
  %114 = add i64 %113, 1
  %115 = call i64 @g_strlcpy(ptr noundef %108, ptr noundef @.str.368, i64 noundef %114)
  store i32 1, ptr %16, align 4
  br label %135

116:                                              ; preds = %98
  %117 = load ptr, ptr %11, align 8
  %118 = call ptr @wmem_packet_scope()
  %119 = load ptr, ptr %6, align 8
  %120 = load i32, ptr %8, align 4
  %121 = add i32 %120, 1
  %122 = add i32 %121, 2
  %123 = load i32, ptr %14, align 4
  %124 = add i32 %122, %123
  %125 = add i32 %124, 2
  %126 = load i32, ptr %15, align 4
  %127 = call ptr @tvb_format_text(ptr noundef %118, ptr noundef %119, i32 noundef %125, i32 noundef %126)
  %128 = load ptr, ptr %12, align 8
  %129 = load ptr, ptr %11, align 8
  %130 = ptrtoint ptr %128 to i64
  %131 = ptrtoint ptr %129 to i64
  %132 = sub i64 %130, %131
  %133 = add i64 %132, 1
  %134 = call i64 @g_strlcpy(ptr noundef %117, ptr noundef %127, i64 noundef %133)
  br label %135

135:                                              ; preds = %116, %107
  %136 = load ptr, ptr %11, align 8
  %137 = call i64 @strlen(ptr noundef %136) #12
  %138 = load ptr, ptr %11, align 8
  %139 = getelementptr i8, ptr %138, i64 %137
  store ptr %139, ptr %11, align 8
  br label %140

140:                                              ; preds = %135, %84, %80
  %141 = load i32, ptr %14, align 4
  %142 = add i32 3, %141
  %143 = add i32 %142, 2
  %144 = load i32, ptr %15, align 4
  %145 = add i32 %143, %144
  %146 = load i32, ptr %8, align 4
  %147 = add i32 %146, %145
  store i32 %147, ptr %8, align 4
  %148 = load i8, ptr %13, align 1
  %149 = zext i8 %148 to i32
  %150 = icmp eq i32 %149, 52
  br i1 %150, label %151, label %197

151:                                              ; preds = %140
  call void @llvm.lifetime.start.p0(i64 176, ptr %17) #10
  %152 = load ptr, ptr %7, align 8
  call void @increment_dissection_depth(ptr noundef %152)
  %153 = load ptr, ptr %6, align 8
  %154 = load ptr, ptr %7, align 8
  %155 = load i32, ptr %8, align 4
  %156 = getelementptr inbounds [176 x i8], ptr %17, i64 0, i64 0
  %157 = call i32 @ipp_fmt_collection(ptr noundef %153, ptr noundef %154, i32 noundef %155, ptr noundef %156, i32 noundef 176)
  store i32 %157, ptr %8, align 4
  %158 = load ptr, ptr %7, align 8
  call void @decrement_dissection_depth(ptr noundef %158)
  %159 = load i32, ptr %16, align 4
  %160 = icmp ne i32 %159, 0
  br i1 %160, label %196, label %161

161:                                              ; preds = %151
  %162 = load ptr, ptr %12, align 8
  %163 = load ptr, ptr %11, align 8
  %164 = ptrtoint ptr %162 to i64
  %165 = ptrtoint ptr %163 to i64
  %166 = sub i64 %164, %165
  %167 = getelementptr inbounds [176 x i8], ptr %17, i64 0, i64 0
  %168 = call i64 @strlen(ptr noundef %167) #12
  %169 = trunc i64 %168 to i32
  %170 = sext i32 %169 to i64
  %171 = icmp slt i64 %166, %170
  br i1 %171, label %172, label %181

172:                                              ; preds = %161
  %173 = load ptr, ptr %11, align 8
  %174 = load ptr, ptr %12, align 8
  %175 = load ptr, ptr %11, align 8
  %176 = ptrtoint ptr %174 to i64
  %177 = ptrtoint ptr %175 to i64
  %178 = sub i64 %176, %177
  %179 = add i64 %178, 1
  %180 = call i64 @g_strlcpy(ptr noundef %173, ptr noundef @.str.368, i64 noundef %179)
  store i32 1, ptr %16, align 4
  br label %191

181:                                              ; preds = %161
  %182 = load ptr, ptr %11, align 8
  %183 = getelementptr inbounds [176 x i8], ptr %17, i64 0, i64 0
  %184 = load ptr, ptr %12, align 8
  %185 = load ptr, ptr %11, align 8
  %186 = ptrtoint ptr %184 to i64
  %187 = ptrtoint ptr %185 to i64
  %188 = sub i64 %186, %187
  %189 = add i64 %188, 1
  %190 = call i64 @g_strlcpy(ptr noundef %182, ptr noundef %183, i64 noundef %189)
  br label %191

191:                                              ; preds = %181, %172
  %192 = load ptr, ptr %11, align 8
  %193 = call i64 @strlen(ptr noundef %192) #12
  %194 = load ptr, ptr %11, align 8
  %195 = getelementptr i8, ptr %194, i64 %193
  store ptr %195, ptr %11, align 8
  br label %196

196:                                              ; preds = %191, %151
  call void @llvm.lifetime.end.p0(i64 176, ptr %17) #10
  br label %197

197:                                              ; preds = %196, %140
  br label %198

198:                                              ; preds = %197
  %199 = load i8, ptr %13, align 1
  %200 = zext i8 %199 to i32
  %201 = icmp ne i32 %200, 55
  br i1 %201, label %36, label %202, !llvm.loop !18

202:                                              ; preds = %198, %79, %59, %41
  %203 = load ptr, ptr %11, align 8
  %204 = load ptr, ptr %12, align 8
  %205 = icmp ult ptr %203, %204
  br i1 %205, label %206, label %209

206:                                              ; preds = %202
  %207 = load ptr, ptr %11, align 8
  %208 = getelementptr i8, ptr %207, i32 1
  store ptr %208, ptr %11, align 8
  store i8 125, ptr %207, align 1
  br label %209

209:                                              ; preds = %206, %202
  %210 = load ptr, ptr %11, align 8
  store i8 0, ptr %210, align 1
  %211 = load ptr, ptr %11, align 8
  %212 = load ptr, ptr %12, align 8
  %213 = icmp eq ptr %211, %212
  br i1 %213, label %214, label %220

214:                                              ; preds = %209
  %215 = load ptr, ptr %9, align 8
  %216 = load i32, ptr %10, align 4
  %217 = sub i32 %216, 2
  %218 = sext i32 %217 to i64
  %219 = call ptr @ws_utf8_truncate(ptr noundef %215, i64 noundef %218)
  br label %220

220:                                              ; preds = %214, %209
  %221 = load i32, ptr %8, align 4
  call void @llvm.lifetime.end.p0(i64 4, ptr %16) #10
  call void @llvm.lifetime.end.p0(i64 4, ptr %15) #10
  call void @llvm.lifetime.end.p0(i64 4, ptr %14) #10
  call void @llvm.lifetime.end.p0(i64 1, ptr %13) #10
  call void @llvm.lifetime.end.p0(i64 8, ptr %12) #10
  call void @llvm.lifetime.end.p0(i64 8, ptr %11) #10
  ret i32 %221
}