; Function Attrs: null_pointer_is_valid sspstrong uwtable
define internal fastcc i32 @ipp_fmt_collection(ptr noundef %0, ptr noundef %1, i32 noundef %2, ptr noundef initializes((0, 1)) %3, i32 noundef range(i32 176, 1025) %4) unnamed_addr #0 {
  %6 = alloca [176 x i8], align 16
  %7 = zext nneg i32 %4 to i64
  %8 = getelementptr i8, ptr %3, i64 %7
  %9 = getelementptr i8, ptr %8, i64 -1
  %10 = getelementptr i8, ptr %3, i64 1
  store i8 123, ptr %3, align 1
  %11 = ptrtoint ptr %9 to i64
  br label %12

12:                                               ; preds = %69, %5
  %.078 = phi ptr [ %10, %5 ], [ %.583, %69 ]
  %.075 = phi i32 [ %2, %5 ], [ %.277, %69 ]
  %.0 = phi i32 [ 0, %5 ], [ %.5, %69 ]
  %13 = add i32 %.075, 3
  %14 = call zeroext i1 @tvb_offset_exists(ptr noundef %0, i32 noundef %13)
  br i1 %14, label %15, label %70

15:                                               ; preds = %12
  %16 = call zeroext i8 @tvb_get_uint8(ptr noundef %0, i32 noundef %.075)
  %17 = add i32 %.075, 1
  %18 = call zeroext i16 @tvb_get_ntohs(ptr noundef %0, i32 noundef %17)
  %19 = zext i16 %18 to i32
  %20 = add i32 %13, %19
  %21 = add i32 %20, 2
  %22 = call zeroext i1 @tvb_offset_exists(ptr noundef %0, i32 noundef %21)
  br i1 %22, label %23, label %70

23:                                               ; preds = %15
  %24 = call zeroext i16 @tvb_get_ntohs(ptr noundef %0, i32 noundef %20)
  %25 = zext i16 %24 to i32
  %26 = add i32 %21, %25
  %27 = call zeroext i1 @tvb_offset_exists(ptr noundef %0, i32 noundef %26)
  br i1 %27, label %28, label %70

28:                                               ; preds = %23
  %29 = icmp ne i8 %16, 74
  %30 = icmp ne i32 %.0, 0
  %or.cond = select i1 %29, i1 true, i1 %30
  br i1 %or.cond, label %51, label %31

31:                                               ; preds = %28
  %32 = icmp ugt ptr %.078, %10
  %33 = icmp ult ptr %.078, %9
  %or.cond90 = select i1 %32, i1 %33, i1 false
  br i1 %or.cond90, label %34, label %36

34:                                               ; preds = %31
  %35 = getelementptr i8, ptr %.078, i64 1
  store i8 44, ptr %.078, align 1
  br label %36

36:                                               ; preds = %34, %31
  %.381 = phi ptr [ %35, %34 ], [ %.078, %31 ]
  %37 = ptrtoint ptr %.381 to i64
  %38 = sub i64 %11, %37
  %39 = zext i16 %24 to i64
  %40 = icmp slt i64 %38, %39
  br i1 %40, label %.thread, label %41

41:                                               ; preds = %36
  %42 = call ptr @wmem_packet_scope()
  %43 = call ptr @tvb_format_text(ptr noundef %42, ptr noundef %0, i32 noundef %21, i32 noundef %25)
  br label %.thread

.thread:                                          ; preds = %36, %41
  %.str.368.sink = phi ptr [ %43, %41 ], [ @.str.368, %36 ]
  %.2 = phi i32 [ 0, %41 ], [ 1, %36 ]
  %44 = add i64 %38, 1
  %45 = call i64 @g_strlcpy(ptr noundef %.381, ptr noundef %.str.368.sink, i64 noundef %44)
  %46 = call i64 @strlen(ptr noundef %.381) #11
  %47 = getelementptr i8, ptr %.381, i64 %46
  %48 = add i32 %.075, 5
  %49 = add i32 %48, %19
  %50 = add i32 %49, %25
  br label %69

51:                                               ; preds = %28
  %52 = add i32 %.075, 5
  %53 = add i32 %52, %19
  %54 = add i32 %53, %25
  %55 = icmp eq i8 %16, 52
  br i1 %55, label %56, label %69

56:                                               ; preds = %51
  call void @llvm.lifetime.start.p0(i64 176, ptr nonnull %6) #10
  call void @increment_dissection_depth(ptr noundef %1)
  %57 = call fastcc i32 @ipp_fmt_collection(ptr noundef %0, ptr noundef %1, i32 noundef %54, ptr noundef nonnull %6, i32 noundef 176)
  call void @decrement_dissection_depth(ptr noundef %1)
  %.not = icmp eq i32 %.0, 0
  br i1 %.not, label %58, label %68

58:                                               ; preds = %56
  %59 = ptrtoint ptr %.078 to i64
  %60 = sub i64 %11, %59
  %61 = call i64 @strlen(ptr noundef nonnull dereferenceable(1) %6) #11
  %sext = shl i64 %61, 32
  %62 = ashr exact i64 %sext, 32
  %63 = icmp slt i64 %60, %62
  %64 = add i64 %60, 1
  %.str.368. = select i1 %63, ptr @.str.368, ptr %6
  %. = zext i1 %63 to i32
  %65 = call i64 @g_strlcpy(ptr noundef %.078, ptr noundef nonnull %.str.368., i64 noundef %64)
  %66 = call i64 @strlen(ptr noundef %.078) #11
  %67 = getelementptr i8, ptr %.078, i64 %66
  br label %68

68:                                               ; preds = %58, %56
  %.482 = phi ptr [ %.078, %56 ], [ %67, %58 ]
  %.3 = phi i32 [ 1, %56 ], [ %., %58 ]
  call void @llvm.lifetime.end.p0(i64 176, ptr nonnull %6) #10
  br label %69

69:                                               ; preds = %.thread, %51, %68
  %.583 = phi ptr [ %.482, %68 ], [ %.078, %51 ], [ %47, %.thread ]
  %.277 = phi i32 [ %57, %68 ], [ %54, %51 ], [ %50, %.thread ]
  %.5 = phi i32 [ %.3, %68 ], [ %.0, %51 ], [ %.2, %.thread ]
  %.not89 = icmp eq i8 %16, 55
  br i1 %.not89, label %70, label %12, !llvm.loop !14

70:                                               ; preds = %23, %15, %12, %69
  %.179 = phi ptr [ %.583, %69 ], [ %.078, %23 ], [ %.078, %15 ], [ %.078, %12 ]
  %.176 = phi i32 [ %.277, %69 ], [ %.075, %23 ], [ %.075, %15 ], [ %.075, %12 ]
  %71 = icmp ult ptr %.179, %9
  br i1 %71, label %72, label %74

72:                                               ; preds = %70
  %73 = getelementptr i8, ptr %.179, i64 1
  store i8 125, ptr %.179, align 1
  br label %74

74:                                               ; preds = %72, %70
  %.6 = phi ptr [ %73, %72 ], [ %.179, %70 ]
  store i8 0, ptr %.6, align 1
  %75 = icmp eq ptr %.6, %9
  br i1 %75, label %76, label %80

76:                                               ; preds = %74
  %77 = add nsw i32 %4, -2
  %78 = zext nneg i32 %77 to i64
  %79 = call ptr @ws_utf8_truncate(ptr noundef %10, i64 noundef %78)
  br label %80

80:                                               ; preds = %76, %74
  ret i32 %.176
}